(lp0
(lp1
F0.9833887043189369
aF0.9820689655172414
aF0.981549815498155
aF0.8514285714285714
aF0.9667774086378738
aF0.9696551724137931
aF0.985239852398524
aF0.8514285714285714
aF0.9501661129568106
aF0.9517241379310345
aF0.981549815498155
aF0.7257142857142858
aF0.9667774086378738
aF0.9186206896551724
aF0.955719557195572
aF0.8142857142857143
aa(lp2
F0.9833887043189369
aF0.9820689655172414
aF0.981549815498155
aF0.8514285714285714
aF0.9667774086378738
aF0.9696551724137931
aF0.985239852398524
aF0.8514285714285714
aF0.9501661129568106
aF0.9517241379310345
aF0.981549815498155
aF0.7257142857142858
aF0.9667774086378738
aF0.9186206896551724
aF0.955719557195572
aF0.8142857142857143
aa(lp3
F0.10132890365448505
aF0.1006896551724138
aF0.1033210332103321
aF0.1
aF0.051495016611295685
aF0.05103448275862069
aF0.05166051660516605
aF0.051428571428571435
aF0.03488372093023256
aF0.034482758620689655
aF0.03690036900369004
aF0.03428571428571429
aF0.026578073089700997
aF0.02620689655172414
aF0.025830258302583026
aF0.025714285714285717
aa.