(lp0
(lp1
F1.0
aF1.0
aF1.0
aF1.0
aF1.0
aF1.0
aF1.0
aF1.0
aF1.0
aF1.0
aF1.0
aF1.0
aF1.0
aF1.0
aF1.0
aF1.0
aF1.0
aF1.0
aF1.0
aF1.0
aF1.0
aF1.0
aF1.0
aF1.0
aF1.0
aF1.0
aF1.0
aF1.0
aF1.0
aF1.0
aF1.0
aF1.0
aF1.0
aF1.0
aF1.0
aF1.0
aF1.0
aF1.0
aF1.0
aF1.0
aF1.0
aF1.0
aF1.0
aF1.0
aF1.0
aF1.0
aF1.0
aF1.0
aF1.0
aF1.0
aF1.0
aF1.0
aF1.0
aF1.0
aF1.0
aF1.0
aF1.0
aF1.0
aF1.0
aF1.0
aF1.0
aF1.0
aF1.0
aF1.0
aF1.0
aF1.0
aF1.0
aF1.0
aF1.0
aF1.0
aF1.0
aF1.0
aF1.0
aF1.0
aF1.0
aF1.0
aF1.0
aF1.0
aF1.0
aF1.0
aF1.0
aF1.0
aF1.0
aF1.0
aF1.0
aF1.0
aF1.0
aF1.0
aF1.0
aF1.0
aF1.0
aF1.0
aF1.0
aF1.0
aF1.0
aF1.0
aF1.0
aF1.0
aF1.0
aF1.0
aF1.0
aF1.0
aF1.0
aF1.0
aF1.0
aF1.0
aF1.0
aF1.0
aF1.0
aF1.0
aF1.0
aF1.0
aF1.0
aF1.0
aF1.0
aF1.0
aF1.0
aF1.0
aF1.0
aF1.0
aF1.0
aF1.0
aF1.0
aF1.0
aF1.0
aF1.0
aF1.0
aF1.0
aF1.0
aF1.0
aF1.0
aF1.0
aF1.0
aF1.0
aF1.0
aF1.0
aF1.0
aF1.0
aa(lp2
F1.0
aF1.0
aF1.0
aF1.0
aF1.0
aF1.0
aF1.0
aF1.0
aF1.0
aF1.0
aF1.0
aF1.0
aF1.0
aF1.0
aF1.0
aF1.0
aF1.0
aF1.0
aF1.0
aF1.0
aF1.0
aF1.0
aF1.0
aF1.0
aF1.0
aF1.0
aF1.0
aF1.0
aF1.0
aF1.0
aF1.0
aF1.0
aF1.0
aF1.0
aF1.0
aF1.0
aF1.0
aF1.0
aF1.0
aF1.0
aF1.0
aF1.0
aF1.0
aF1.0
aF1.0
aF1.0
aF1.0
aF1.0
aF1.0
aF1.0
aF1.0
aF1.0
aF1.0
aF1.0
aF1.0
aF1.0
aF1.0
aF1.0
aF1.0
aF1.0
aF1.0
aF1.0
aF1.0
aF1.0
aF1.0
aF1.0
aF1.0
aF1.0
aF1.0
aF1.0
aF1.0
aF1.0
aF1.0
aF1.0
aF1.0
aF1.0
aF1.0
aF1.0
aF1.0
aF1.0
aF1.0
aF1.0
aF1.0
aF1.0
aF1.0
aF1.0
aF1.0
aF1.0
aF1.0
aF1.0
aF1.0
aF1.0
aF1.0
aF1.0
aF1.0
aF1.0
aF1.0
aF1.0
aF1.0
aF1.0
aF1.0
aF1.0
aF1.0
aF1.0
aF1.0
aF1.0
aF1.0
aF1.0
aF1.0
aF1.0
aF1.0
aF1.0
aF1.0
aF1.0
aF1.0
aF1.0
aF1.0
aF1.0
aF1.0
aF1.0
aF1.0
aF1.0
aF1.0
aF1.0
aF1.0
aF1.0
aF1.0
aF1.0
aF1.0
aF1.0
aF1.0
aF1.0
aF1.0
aF1.0
aF1.0
aF1.0
aF1.0
aF1.0
aa(lp3
F0.7574750830564784
aF0.6744827586206896
aF0.9594095940959408
aF0.9857142857142857
aF0.38831168831168833
aF0.9634703196347032
aF0.08760330578512397
aF0.5308219178082192
aF0.9013761467889909
aF0.8258064516129032
aF0.714975845410628
aF0.7049180327868853
aF0.7528089887640449
aF1.0
aF0.9451219512195121
aF0.2857142857142857
aF0.9099999999999999
aF0.48756218905472637
aF0.8865248226950355
aF0.4696969696969697
aF0.8031634446397188
aF0.5950752393980848
aF0.9028475711892796
aF0.7956810631229236
aF0.7627586206896552
aF0.981549815498155
aF0.9942857142857142
aF0.5051948051948052
aF0.9817351598173516
aF0.1
aF0.5616438356164384
aF0.9426605504587156
aF0.8967741935483872
aF0.7777777777777777
aF0.7581967213114754
aF0.7827715355805244
aF1.0
aF0.9695121951219512
aF0.33692722371967654
aF0.9375
aF0.6467661691542288
aF0.9432624113475178
aF0.5189393939393939
aF0.9086115992970123
aF0.6662106703146374
aF0.9547738693467337
aF0.8255813953488372
aF0.830344827586207
aF0.9963099630996309
aF0.9942857142857142
aF0.6402597402597403
aF0.9908675799086758
aF0.12396694214876033
aF0.5924657534246576
aF0.9747706422018348
aF0.9483870967741935
aF0.8357487922705313
aF0.8114754098360656
aF0.8164794007490636
aF1.0
aF1.0
aF0.46091644204851756
aF0.955
aF0.791044776119403
aF0.978723404255319
aF0.5681818181818182
aF0.9648506151142356
aF0.7428180574555403
aF0.9798994974874372
aF0.8554817275747507
aF0.9020689655172414
aF1.0
aF0.9942857142857142
aF0.7779220779220779
aF1.0
aF0.15206611570247933
aF0.6301369863013699
aF0.9977064220183487
aF0.9870967741935485
aF0.8647342995169082
aF0.8442622950819673
aF0.8876404494382022
aF1.0
aF1.0
aF0.5795148247978437
aF0.9675000000000001
aF0.8905472636815921
aF0.9964539007092198
aF0.6401515151515151
aF0.992970123022847
aF0.8248974008207934
aF0.9949748743718594
aF0.8903654485049834
aF0.9448275862068967
aF1.0
aF0.9942857142857142
aF0.8922077922077922
aF1.0
aF0.18760330578512396
aF0.6575342465753425
aF1.0
aF0.996774193548387
aF0.9130434782608695
aF0.8975409836065574
aF0.9101123595505618
aF1.0
aF1.0
aF0.7088948787061995
aF0.9700000000000001
aF0.9701492537313434
aF1.0
aF0.7272727272727273
aF1.0
aF0.878248974008208
aF1.0
aF0.9368770764119602
aF0.9793103448275863
aF1.0
aF0.9942857142857142
aF0.9571428571428572
aF1.0
aF0.23884297520661157
aF0.702054794520548
aF1.0
aF1.0
aF0.9565217391304348
aF0.9385245901639344
aF0.9438202247191011
aF1.0
aF1.0
aF0.8409703504043127
aF0.98
aF0.990049751243781
aF1.0
aF0.7954545454545455
aF1.0
aF0.9288645690834474
aF1.0
aa.