(lp0
(lp1
F0.36710963455149503
aF0.6317241379310344
aF0.3800738007380074
aF0.28285714285714286
aF0.6428571428571429
aF0.228310502283105
aF0.009917355371900827
aF0.14726027397260275
aF0.1536697247706422
aF0.05161290322580645
aF0.5990338164251208
aF0.1557377049180328
aF0.06367041198501873
aF0.3973941368078176
aF0.3780487804878049
aF0.876010781671159
aF0.0975
aF0.17412935323383086
aF0.17375886524822695
aF0.2689393939393939
aF0.8734622144112478
aF0.6374829001367989
aF0.5209380234505863
aF0.4568106312292359
aF0.696551724137931
aF0.5350553505535055
aF1.0
aF0.7051948051948052
aF0.2465753424657534
aF0.009917355371900827
aF0.2602739726027397
aF0.1651376146788991
aF0.05161290322580645
aF0.5990338164251208
aF0.18442622950819673
aF0.06367041198501873
aF0.3355048859934853
aF0.3780487804878049
aF0.9514824797843666
aF0.56
aF0.582089552238806
aF0.32269503546099293
aF0.2689393939393939
aF0.8875219683655536
aF0.6374829001367989
aF0.6515912897822446
aF0.4700996677740864
aF0.7117241379310345
aF0.6826568265682657
aF1.0
aF0.6857142857142857
aF0.2465753424657534
aF0.5355371900826447
aF0.1917808219178082
aF0.1651376146788991
aF0.1064516129032258
aF0.3864734299516908
aF0.16393442622950818
aF0.06367041198501873
aF0.3355048859934853
aF0.3780487804878049
aF0.9514824797843666
aF0.5625
aF0.582089552238806
aF0.5
aF0.39015151515151514
aF0.9507908611599297
aF0.6880984952120383
aF0.7571189279731994
aF0.7009966777408638
aF0.8110344827586207
aF0.8782287822878229
aF1.0
aF0.8103896103896104
aF0.1689497716894977
aF0.5355371900826447
aF0.5342465753424658
aF0.1651376146788991
aF0.3935483870967742
aF0.7053140096618358
aF0.22950819672131148
aF0.10486891385767791
aF0.33876221498371334
aF0.08536585365853659
aF0.9514824797843666
aF0.6925
aF0.7761194029850746
aF0.6382978723404256
aF0.6439393939393939
aF0.9736379613356766
aF0.9015047879616963
aF0.8391959798994975
aF0.7475083056478405
aF0.8855172413793103
aF0.996309963099631
aF1.0
aF0.8935064935064935
aF0.3378995433789954
aF0.5355371900826447
aF0.4897260273972603
aF0.1651376146788991
aF0.23870967741935484
aF0.7439613526570048
aF0.22950819672131148
aF0.08239700374531835
aF0.46579804560260585
aF0.7439024390243902
aF0.9514824797843666
aF0.7925
aF0.845771144278607
aF0.8723404255319149
aF0.24242424242424243
aF0.9964850615114236
aF0.9507523939808481
aF0.9212730318257957
aF0.8604651162790697
aF0.9751724137931035
aF1.0
aF1.0
aF0.9454545454545454
aF0.7031963470319634
aF0.8140495867768595
aF0.7808219178082192
aF0.1926605504587156
aF0.6387096774193548
aF0.8743961352657005
aF0.45491803278688525
aF0.39325842696629215
aF0.6547231270358306
aF0.8414634146341463
aF0.9299191374663073
aF0.9
aF0.8905472636815921
aF0.950354609929078
aF0.3446969696969697
aF1.0
aF0.9781121751025992
aF0.966499162479062
aa(lp2
F0.20431893687707642
aF0.4731034482758621
aF0.34317343173431736
aF0.10857142857142857
aF0.42337662337662335
aF0.1461187214611872
aF0.014049586776859505
aF0.0821917808219178
aF0.10779816513761468
aF0.04838709677419355
aF0.5555555555555556
aF0.08196721311475409
aF0.18726591760299627
aF0.07166123778501629
aF0.23170731707317074
aF0.30727762803234504
aF0.1075
aF0.21890547263681592
aF0.2624113475177305
aF0.17803030303030304
aF0.7697715289982425
aF0.19015047879616964
aF0.2814070351758794
aF0.21760797342192692
aF0.5062068965517241
aF0.3948339483394834
aF0.5971428571428572
aF0.4974025974025974
aF0.1735159817351598
aF0.014049586776859505
aF0.24315068493150685
aF0.06192660550458716
aF0.04838709677419355
aF0.5555555555555556
aF0.20901639344262296
aF0.18726591760299627
aF0.1465798045602606
aF0.23170731707317074
aF0.3288409703504043
aF0.5125
aF0.1691542288557214
aF0.2765957446808511
aF0.17803030303030304
aF0.7820738137082601
aF0.18878248974008208
aF0.3333333333333333
aF0.27740863787375414
aF0.5737931034482758
aF0.4095940959409594
aF0.62
aF0.5493506493506494
aF0.1187214611872146
aF0.15454545454545454
aF0.273972602739726
aF0.05045871559633028
aF0.12580645161290321
aF0.45893719806763283
aF0.20081967213114754
aF0.17228464419475656
aF0.1465798045602606
aF0.23170731707317074
aF0.3288409703504043
aF0.4975
aF0.1691542288557214
aF0.599290780141844
aF0.38257575757575757
aF0.8699472759226714
aF0.2393980848153215
aF0.35175879396984927
aF0.38870431893687707
aF0.6344827586206897
aF0.4907749077490775
aF0.6371428571428571
aF0.6805194805194805
aF0.2511415525114155
aF0.15454545454545454
aF0.4212328767123288
aF0.04357798165137615
aF0.13870967741935483
aF0.6376811594202898
aF0.1885245901639344
aF0.1348314606741573
aF0.09120521172638436
aF0.23170731707317074
aF0.31536388140161725
aF0.39
aF0.3880597014925373
aF0.6170212765957447
aF0.29924242424242425
aF0.9156414762741653
aF0.32694938440492477
aF0.4556113902847571
aF0.43853820598006643
aF0.6786206896551724
aF0.5904059040590406
aF0.88
aF0.8025974025974026
aF0.1872146118721461
aF0.15454545454545454
aF0.4280821917808219
aF0.08027522935779817
aF0.1967741935483871
aF0.6376811594202898
aF0.18032786885245902
aF0.16853932584269662
aF0.2280130293159609
aF0.5060975609756098
aF0.31536388140161725
aF0.4425
aF0.40298507462686567
aF0.5709219858156028
aF0.3522727272727273
aF0.9876977152899824
aF0.4008207934336525
aF0.4656616415410385
aF0.5431893687707641
aF0.7255172413793104
aF0.7822878228782287
aF0.9457142857142857
aF0.8376623376623377
aF0.3698630136986301
aF0.8231404958677686
aF0.4520547945205479
aF0.19954128440366972
aF0.2806451612903226
aF0.7391304347826086
aF0.28688524590163933
aF0.352059925093633
aF0.2964169381107492
aF0.5670731707317073
aF0.38274932614555257
aF0.54
aF0.3582089552238806
aF0.5780141843971631
aF0.39015151515151514
aF0.9929701230228472
aF0.5321477428180574
aF0.5343383584589615
aa(lp3
F0.009966777408637875
aF0.020689655172413793
aF0.03690036900369004
aF0.005714285714285714
aF0.023376623376623377
aF0.0182648401826484
aF0.0008264462809917355
aF0.00684931506849315
aF0.0022935779816513763
aF0.0032258064516129032
aF0.03864734299516908
aF0.004098360655737705
aF0.00749063670411985
aF0.006514657980456026
aF0.01829268292682927
aF0.008086253369272238
aF0.0025
aF0.009950248756218905
aF0.010638297872340425
aF0.003787878787878788
aF0.0421792618629174
aF0.006839945280437757
aF0.02512562814070352
aF0.011627906976744186
aF0.023448275862068966
aF0.05166051660516605
aF0.16
aF0.03506493506493506
aF0.022831050228310504
aF0.0008264462809917355
aF0.0136986301369863
aF0.0045871559633027525
aF0.0032258064516129032
aF0.03864734299516908
aF0.00819672131147541
aF0.00749063670411985
aF0.00977198697068404
aF0.01829268292682927
aF0.01078167115902965
aF0.025
aF0.014925373134328358
aF0.014184397163120567
aF0.003787878787878788
aF0.04745166959578208
aF0.006839945280437757
aF0.031825795644891124
aF0.01661129568106312
aF0.02482758620689655
aF0.07011070110701106
aF0.22571428571428573
aF0.04155844155844156
aF0.022831050228310504
aF0.003305785123966942
aF0.017123287671232876
aF0.0045871559633027525
aF0.0064516129032258064
aF0.014492753623188406
aF0.012295081967213116
aF0.00749063670411985
aF0.00977198697068404
aF0.01829268292682927
aF0.01078167115902965
aF0.0225
aF0.014925373134328358
aF0.03900709219858156
aF0.045454545454545456
aF0.08260105448154657
aF0.009575923392612859
aF0.03852596314907873
aF0.026578073089700997
aF0.03310344827586207
aF0.1033210332103321
aF0.3057142857142857
aF0.07142857142857142
aF0.0273972602739726
aF0.003305785123966942
aF0.0273972602739726
aF0.0045871559633027525
aF0.00967741935483871
aF0.06280193236714976
aF0.024590163934426233
aF0.011235955056179775
aF0.013029315960912053
aF0.024390243902439025
aF0.01078167115902965
aF0.04
aF0.03980099502487562
aF0.05319148936170213
aF0.06439393939393939
aF0.11950790861159931
aF0.016415868673050615
aF0.05025125628140704
aF0.03488372093023256
aF0.0496551724137931
aF0.18081180811808117
aF0.5599999999999999
aF0.13246753246753248
aF0.04109589041095891
aF0.003305785123966942
aF0.03082191780821918
aF0.0045871559633027525
aF0.012903225806451613
aF0.07729468599033816
aF0.024590163934426233
aF0.0149812734082397
aF0.026058631921824105
aF0.20121951219512196
aF0.01078167115902965
aF0.0525
aF0.05472636815920398
aF0.12765957446808512
aF0.022727272727272728
aF0.1827768014059754
aF0.028727770177838577
aF0.06365159128978225
aF0.06478405315614617
aF0.08689655172413793
aF0.2915129151291513
aF0.6771428571428572
aF0.22207792207792207
aF0.1187214611872146
aF0.014049586776859505
aF0.0684931506849315
aF0.01146788990825688
aF0.025806451612903226
aF0.1932367149758454
aF0.05737704918032788
aF0.0599250936329588
aF0.04560260586319219
aF0.3048780487804878
aF0.013477088948787061
aF0.07250000000000001
aF0.0945273631840796
aF0.18085106382978725
aF0.034090909090909095
aF0.2741652021089631
aF0.03556771545827633
aF0.09547738693467338
aa.